target datalayout = "e-m:e-p270:32:32-p271:32:32-p272:64:64-i64:64-i128:128-f80:128-n8:16:32:64-S128"
target triple = "x86_64-pc-linux-gnu"

%class.svector = type { %class.vector.0 }
%class.vector.0 = type { ptr }
%class.vector.62 = type { ptr }
%"class.datalog::relation_signature" = type { %"class.datalog::tr_infrastructure<datalog::relation_traits>::signature_base" }
%"class.datalog::tr_infrastructure<datalog::relation_traits>::signature_base" = type { %class.ptr_vector.61 }
%class.ptr_vector.61 = type { %class.vector.62 }
%"struct.datalog::uint_set2" = type { %class.uint_set, %class.uint_set }
%class.uint_set = type { %class.svector }
%"class.datalog::bound_relation" = type { %"class.datalog::vector_relation", %class.svector.65 }
%"class.datalog::vector_relation" = type { %"class.datalog::relation_base.base", %"struct.datalog::uint_set2", ptr, i8, %class.union_find_default_ctx, ptr }
%"class.datalog::relation_base.base" = type { %"class.datalog::tr_infrastructure<datalog::relation_traits>::base_ancestor.base" }
%"class.datalog::tr_infrastructure<datalog::relation_traits>::base_ancestor.base" = type <{ ptr, ptr, %"class.datalog::relation_signature", i32 }>
%class.union_find_default_ctx = type { %class.trail_stack }
%class.trail_stack = type { %class.ptr_vector.63, %class.svector, %class.region }
%class.ptr_vector.63 = type { %class.vector.64 }
%class.vector.64 = type { ptr }
%class.region = type { ptr, ptr, ptr, ptr, ptr }
%class.svector.65 = type { %class.vector.66 }
%class.vector.66 = type { ptr }
%class.union_find = type { ptr, ptr, %class.svector, %class.svector, %class.svector, %"class.union_find<>::mk_var_trail" }
%"class.union_find<>::mk_var_trail" = type { %class.trail, ptr }
%class.trail = type { ptr }
%"struct.std::pair" = type <{ i32, i8, [3 x i8] }>

; Function Attrs: mustprogress nounwind uwtable
define linkonce_odr hidden noundef nonnull align 4 dereferenceable(4) ptr @_ZNK6vectorIjLb0EjEixEj(ptr noundef nonnull align 8 dereferenceable(8) %0, i32 noundef %1) #7 comdat align 2 {
  %3 = alloca ptr, align 8
  %4 = alloca i32, align 4
  store ptr %0, ptr %3, align 8, !tbaa !135
  store i32 %1, ptr %4, align 4, !tbaa !54
  %5 = load ptr, ptr %3, align 8
  %6 = getelementptr inbounds nuw %class.vector.0, ptr %5, i32 0, i32 0
  %7 = load ptr, ptr %6, align 8, !tbaa !137
  %8 = load i32, ptr %4, align 4, !tbaa !54
  %9 = zext i32 %8 to i64
  %10 = getelementptr inbounds nuw i32, ptr %7, i64 %9
  ret ptr %10
}

; Function Attrs: mustprogress nounwind uwtable
define linkonce_odr hidden void @_ZNSt4pairIjbEC2IjbQcl16_S_constructibleITL0__TL0_0_EEEEOT_OT0_(ptr noundef nonnull align 4 dereferenceable(5) %0, ptr noundef nonnull align 4 dereferenceable(4) %1, ptr noundef nonnull align 1 dereferenceable(1) %2) unnamed_addr #7 comdat align 2 {
  %4 = alloca ptr, align 8
  %5 = alloca ptr, align 8
  %6 = alloca ptr, align 8
  store ptr %0, ptr %4, align 8, !tbaa !188
  store ptr %1, ptr %5, align 8, !tbaa !78
  store ptr %2, ptr %6, align 8, !tbaa !161
  %7 = load ptr, ptr %4, align 8
  %8 = getelementptr inbounds nuw %"struct.std::pair", ptr %7, i32 0, i32 0
  %9 = load ptr, ptr %5, align 8, !tbaa !78
  %10 = load i32, ptr %9, align 4, !tbaa !54
  store i32 %10, ptr %8, align 4, !tbaa !174
  %11 = getelementptr inbounds nuw %"struct.std::pair", ptr %7, i32 0, i32 1
  %12 = load ptr, ptr %6, align 8, !tbaa !161
  %13 = load i8, ptr %12, align 1, !tbaa !87, !range !88, !noundef !89
  %14 = trunc i8 %13 to i1
  %15 = zext i1 %14 to i8
  store i8 %15, ptr %11, align 4, !tbaa !176
  ret void
}

; Function Attrs: mustprogress nounwind uwtable
define linkonce_odr hidden noundef i32 @_ZNK10union_findI22union_find_default_ctxE4findEj(ptr noundef nonnull align 8 dereferenceable(56) %0, i32 noundef %1) #7 comdat align 2 {
  %3 = alloca i32, align 4
  %4 = alloca ptr, align 8
  %5 = alloca i32, align 4
  %6 = alloca i32, align 4
  %7 = alloca i32, align 4
  store ptr %0, ptr %4, align 8, !tbaa !165
  store i32 %1, ptr %5, align 4, !tbaa !54
  %8 = load ptr, ptr %4, align 8
  br label %9

9:                                                ; preds = %2, %23
  call void @llvm.lifetime.start.p0(i64 4, ptr %6) #3
  %10 = getelementptr inbounds nuw %class.union_find, ptr %8, i32 0, i32 2
  %11 = load i32, ptr %5, align 4, !tbaa !54
  %12 = call noundef nonnull align 4 dereferenceable(4) ptr @_ZNK6vectorIjLb0EjEixEj(ptr noundef nonnull align 8 dereferenceable(8) %10, i32 noundef %11)
  %13 = load i32, ptr %12, align 4, !tbaa !54
  store i32 %13, ptr %6, align 4, !tbaa !54
  %14 = load i32, ptr %6, align 4, !tbaa !54
  %15 = load i32, ptr %5, align 4, !tbaa !54
  %16 = icmp eq i32 %14, %15
  br i1 %16, label %17, label %19

17:                                               ; preds = %9
  %18 = load i32, ptr %5, align 4, !tbaa !54
  store i32 %18, ptr %3, align 4
  store i32 1, ptr %7, align 4
  br label %21

19:                                               ; preds = %9
  %20 = load i32, ptr %6, align 4, !tbaa !54
  store i32 %20, ptr %5, align 4, !tbaa !54
  store i32 0, ptr %7, align 4
  br label %21

21:                                               ; preds = %19, %17
  call void @llvm.lifetime.end.p0(i64 4, ptr %6) #3
  %22 = load i32, ptr %7, align 4
  switch i32 %22, label %26 [
    i32 0, label %23
    i32 1, label %24
  ]

23:                                               ; preds = %21
  br label %9, !llvm.loop !169

24:                                               ; preds = %21
  %25 = load i32, ptr %3, align 4
  ret i32 %25

26:                                               ; preds = %21
  unreachable
}

; Function Attrs: mustprogress uwtable
define linkonce_odr hidden noundef nonnull align 8 dereferenceable(8) ptr @_ZN6vectorISt4pairIjbELb0EjE9push_backEOS1_(ptr noundef nonnull align 8 dereferenceable(8) %0, ptr noundef nonnull align 4 dereferenceable(5) %1) #4 comdat align 2 {
  %3 = alloca ptr, align 8
  %4 = alloca ptr, align 8
  store ptr %0, ptr %3, align 8, !tbaa !180
  store ptr %1, ptr %4, align 8, !tbaa !188
  %5 = load ptr, ptr %3, align 8
  %6 = getelementptr inbounds nuw %class.vector.66, ptr %5, i32 0, i32 0
  %7 = load ptr, ptr %6, align 8, !tbaa !182
  %8 = icmp eq ptr %7, null
  br i1 %8, label %19, label %9

9:                                                ; preds = %2
  %10 = getelementptr inbounds nuw %class.vector.66, ptr %5, i32 0, i32 0
  %11 = load ptr, ptr %10, align 8, !tbaa !182
  %12 = getelementptr inbounds i32, ptr %11, i64 -1
  %13 = load i32, ptr %12, align 4, !tbaa !54
  %14 = getelementptr inbounds nuw %class.vector.66, ptr %5, i32 0, i32 0
  %15 = load ptr, ptr %14, align 8, !tbaa !182
  %16 = getelementptr inbounds i32, ptr %15, i64 -2
  %17 = load i32, ptr %16, align 4, !tbaa !54
  %18 = icmp eq i32 %13, %17
  br i1 %18, label %19, label %20

19:                                               ; preds = %9, %2
  call void @_ZN6vectorISt4pairIjbELb0EjE13expand_vectorEv(ptr noundef nonnull align 8 dereferenceable(8) %5)
  br label %20

20:                                               ; preds = %19, %9
  %21 = getelementptr inbounds nuw %class.vector.66, ptr %5, i32 0, i32 0
  %22 = load ptr, ptr %21, align 8, !tbaa !182
  %23 = getelementptr inbounds nuw %class.vector.66, ptr %5, i32 0, i32 0
  %24 = load ptr, ptr %23, align 8, !tbaa !182
  %25 = getelementptr inbounds i32, ptr %24, i64 -1
  %26 = load i32, ptr %25, align 4, !tbaa !54
  %27 = zext i32 %26 to i64
  %28 = getelementptr inbounds nuw %"struct.std::pair", ptr %22, i64 %27
  %29 = load ptr, ptr %4, align 8, !tbaa !188
  call void @llvm.memcpy.p0.p0.i64(ptr align 4 %28, ptr align 4 %29, i64 8, i1 false)
  %30 = getelementptr inbounds nuw %class.vector.66, ptr %5, i32 0, i32 0
  %31 = load ptr, ptr %30, align 8, !tbaa !182
  %32 = getelementptr inbounds i32, ptr %31, i64 -1
  %33 = load i32, ptr %32, align 4, !tbaa !54
  %34 = add i32 %33, 1
  store i32 %34, ptr %32, align 4, !tbaa !54
  ret ptr %5
}

; Function Attrs: mustprogress nounwind uwtable
define linkonce_odr i64 @_ZSt9make_pairIjbESt4pairINSt25__strip_reference_wrapperINSt5decayIT_E4typeEE6__typeENS1_INS2_IT0_E4typeEE6__typeEEOS3_OS8_(ptr noundef nonnull align 4 dereferenceable(4) %0, ptr noundef nonnull align 1 dereferenceable(1) %1) #7 comdat {
  %3 = alloca %"struct.std::pair", align 4
  %4 = alloca ptr, align 8
  %5 = alloca ptr, align 8
  store ptr %0, ptr %4, align 8, !tbaa !78
  store ptr %1, ptr %5, align 8, !tbaa !161
  %6 = load ptr, ptr %4, align 8, !tbaa !78
  %7 = load ptr, ptr %5, align 8, !tbaa !161
  call void @_ZNSt4pairIjbEC2IjbQcl16_S_constructibleITL0__TL0_0_EEEEOT_OT0_(ptr noundef nonnull align 4 dereferenceable(5) %3, ptr noundef nonnull align 4 dereferenceable(4) %6, ptr noundef nonnull align 1 dereferenceable(1) %7) #3
  %8 = load i64, ptr %3, align 4
  ret i64 %8
}

; Function Attrs: mustprogress nounwind uwtable
define linkonce_odr hidden noundef i32 @_ZNK7datalog15vector_relationINS_9uint_set2ENS_21bound_relation_helperEE4findEj(ptr noundef nonnull align 8 dereferenceable(128) %0, i32 noundef %1) #7 comdat align 2 {
  %3 = alloca ptr, align 8
  %4 = alloca i32, align 4
  store ptr %0, ptr %3, align 8, !tbaa !140
  store i32 %1, ptr %4, align 4, !tbaa !54
  %5 = load ptr, ptr %3, align 8
  %6 = getelementptr inbounds nuw %"class.datalog::vector_relation", ptr %5, i32 0, i32 5
  %7 = load ptr, ptr %6, align 8, !tbaa !157
  %8 = load i32, ptr %4, align 4, !tbaa !54
  %9 = call noundef i32 @_ZNK10union_findI22union_find_default_ctxE4findEj(ptr noundef nonnull align 8 dereferenceable(56) %7, i32 noundef %8)
  ret i32 %9
}

; Function Attrs: mustprogress nounwind uwtable
define linkonce_odr hidden void @_ZN6vectorISt4pairIjbELb0EjE5resetEv(ptr noundef nonnull align 8 dereferenceable(8) %0) #7 comdat align 2 {
  %2 = alloca ptr, align 8
  store ptr %0, ptr %2, align 8, !tbaa !180
  %3 = load ptr, ptr %2, align 8
  %4 = getelementptr inbounds nuw %class.vector.66, ptr %3, i32 0, i32 0
  %5 = load ptr, ptr %4, align 8, !tbaa !182
  %6 = icmp ne ptr %5, null
  br i1 %6, label %7, label %11

7:                                                ; preds = %1
  %8 = getelementptr inbounds nuw %class.vector.66, ptr %3, i32 0, i32 0
  %9 = load ptr, ptr %8, align 8, !tbaa !182
  %10 = getelementptr inbounds i32, ptr %9, i64 -1
  store i32 0, ptr %10, align 4, !tbaa !54
  br label %11

11:                                               ; preds = %7, %1
  ret void
}

; Function Attrs: mustprogress uwtable
define hidden void @_ZN7datalog14bound_relation5mk_ltEjj(ptr noundef nonnull align 8 dereferenceable(136) %0, i32 noundef %1, i32 noundef %2) #4 align 2 {
  %4 = alloca ptr, align 8
  %5 = alloca i32, align 4
  %6 = alloca i32, align 4
  %7 = alloca %"struct.std::pair", align 4
  %8 = alloca i32, align 4
  %9 = alloca i8, align 1
  store ptr %0, ptr %4, align 8, !tbaa !138
  store i32 %1, ptr %5, align 4, !tbaa !54
  store i32 %2, ptr %6, align 4, !tbaa !54
  %10 = load ptr, ptr %4, align 8
  %11 = getelementptr inbounds nuw %"class.datalog::bound_relation", ptr %10, i32 0, i32 1
  call void @_ZN6vectorISt4pairIjbELb0EjE5resetEv(ptr noundef nonnull align 8 dereferenceable(8) %11)
  %12 = load i32, ptr %5, align 4, !tbaa !54
  %13 = call noundef i32 @_ZNK7datalog15vector_relationINS_9uint_set2ENS_21bound_relation_helperEE4findEj(ptr noundef nonnull align 8 dereferenceable(128) %10, i32 noundef %12)
  store i32 %13, ptr %5, align 4, !tbaa !54
  %14 = getelementptr inbounds nuw %"class.datalog::bound_relation", ptr %10, i32 0, i32 1
  call void @llvm.lifetime.start.p0(i64 8, ptr %7) #3
  call void @llvm.lifetime.start.p0(i64 4, ptr %8) #3
  %15 = load i32, ptr %6, align 4, !tbaa !54
  %16 = call noundef i32 @_ZNK7datalog15vector_relationINS_9uint_set2ENS_21bound_relation_helperEE4findEj(ptr noundef nonnull align 8 dereferenceable(128) %10, i32 noundef %15)
  store i32 %16, ptr %8, align 4, !tbaa !54
  call void @llvm.lifetime.start.p0(i64 1, ptr %9) #3
  store i8 1, ptr %9, align 1, !tbaa !87
  %17 = call i64 @_ZSt9make_pairIjbESt4pairINSt25__strip_reference_wrapperINSt5decayIT_E4typeEE6__typeENS1_INS2_IT0_E4typeEE6__typeEEOS3_OS8_(ptr noundef nonnull align 4 dereferenceable(4) %8, ptr noundef nonnull align 1 dereferenceable(1) %9)
  %18 = trunc i64 %17 to i40
  store i40 %18, ptr %7, align 4
  %19 = call noundef nonnull align 8 dereferenceable(8) ptr @_ZN6vectorISt4pairIjbELb0EjE9push_backEOS1_(ptr noundef nonnull align 8 dereferenceable(8) %14, ptr noundef nonnull align 4 dereferenceable(5) %7)
  call void @llvm.lifetime.end.p0(i64 1, ptr %9) #3
  call void @llvm.lifetime.end.p0(i64 4, ptr %8) #3
  call void @llvm.lifetime.end.p0(i64 8, ptr %7) #3
  %20 = load i32, ptr %5, align 4, !tbaa !54
  call void @_ZN7datalog14bound_relation5mk_ltEj(ptr noundef nonnull align 8 dereferenceable(136) %10, i32 noundef %20)
  ret void
}