; Function Attrs: mustprogress uwtable
define hidden void @_ZN7datalog14bound_relation5mk_ltEjj(ptr noundef nonnull align 8 dereferenceable(136) %0, i32 noundef %1, i32 noundef %2) local_unnamed_addr #3 align 2 {
  %4 = getelementptr inbounds nuw i8, ptr %0, i64 128
  %5 = load ptr, ptr %4, align 8, !tbaa !166
  %.not.i = icmp eq ptr %5, null
  br i1 %.not.i, label %_ZN6vectorISt4pairIjbELb0EjE5resetEv.exit, label %6

6:                                                ; preds = %3
  %7 = getelementptr inbounds i8, ptr %5, i64 -4
  store i32 0, ptr %7, align 4, !tbaa !40
  br label %_ZN6vectorISt4pairIjbELb0EjE5resetEv.exit

_ZN6vectorISt4pairIjbELb0EjE5resetEv.exit:        ; preds = %3, %6
  %8 = getelementptr inbounds nuw i8, ptr %0, i64 120
  %9 = load ptr, ptr %8, align 8, !tbaa !194
  %10 = getelementptr inbounds nuw i8, ptr %9, i64 16
  %11 = load ptr, ptr %10, align 8, !tbaa !61
  br label %12

12:                                               ; preds = %12, %_ZN6vectorISt4pairIjbELb0EjE5resetEv.exit
  %.08.i.i = phi i32 [ %1, %_ZN6vectorISt4pairIjbELb0EjE5resetEv.exit ], [ %15, %12 ]
  %13 = zext i32 %.08.i.i to i64
  %14 = getelementptr inbounds nuw i32, ptr %11, i64 %13
  %15 = load i32, ptr %14, align 4, !tbaa !40
  %.not.i.i = icmp eq i32 %15, %.08.i.i
  br i1 %.not.i.i, label %_ZNK7datalog15vector_relationINS_9uint_set2ENS_21bound_relation_helperEE4findEj.exit, label %12

_ZNK7datalog15vector_relationINS_9uint_set2ENS_21bound_relation_helperEE4findEj.exit: ; preds = %12, %_ZNK7datalog15vector_relationINS_9uint_set2ENS_21bound_relation_helperEE4findEj.exit
  %.08.i.i3 = phi i32 [ %18, %_ZNK7datalog15vector_relationINS_9uint_set2ENS_21bound_relation_helperEE4findEj.exit ], [ %2, %12 ]
  %16 = zext i32 %.08.i.i3 to i64
  %17 = getelementptr inbounds nuw i32, ptr %11, i64 %16
  %18 = load i32, ptr %17, align 4, !tbaa !40
  %.not.i.i4 = icmp eq i32 %18, %.08.i.i3
  br i1 %.not.i.i4, label %_ZNK7datalog15vector_relationINS_9uint_set2ENS_21bound_relation_helperEE4findEj.exit5, label %_ZNK7datalog15vector_relationINS_9uint_set2ENS_21bound_relation_helperEE4findEj.exit

_ZNK7datalog15vector_relationINS_9uint_set2ENS_21bound_relation_helperEE4findEj.exit5: ; preds = %_ZNK7datalog15vector_relationINS_9uint_set2ENS_21bound_relation_helperEE4findEj.exit
  br i1 %.not.i, label %25, label %19

19:                                               ; preds = %_ZNK7datalog15vector_relationINS_9uint_set2ENS_21bound_relation_helperEE4findEj.exit5
  %20 = getelementptr inbounds i8, ptr %5, i64 -4
  %21 = load i32, ptr %20, align 4, !tbaa !40
  %22 = getelementptr inbounds i8, ptr %5, i64 -8
  %23 = load i32, ptr %22, align 4, !tbaa !40
  %24 = icmp eq i32 %21, %23
  br i1 %24, label %25, label %_ZN6vectorISt4pairIjbELb0EjE9push_backEOS1_.exit

25:                                               ; preds = %19, %_ZNK7datalog15vector_relationINS_9uint_set2ENS_21bound_relation_helperEE4findEj.exit5
  tail call void @_ZN6vectorISt4pairIjbELb0EjE13expand_vectorEv(ptr noundef nonnull align 8 dereferenceable(8) %4)
  %.pre.i = load ptr, ptr %4, align 8, !tbaa !166
  %.phi.trans.insert.i = getelementptr inbounds i8, ptr %.pre.i, i64 -4
  %.pre2.i = load i32, ptr %.phi.trans.insert.i, align 4, !tbaa !40
  br label %_ZN6vectorISt4pairIjbELb0EjE9push_backEOS1_.exit

_ZN6vectorISt4pairIjbELb0EjE9push_backEOS1_.exit: ; preds = %19, %25
  %26 = phi i32 [ %.pre2.i, %25 ], [ %21, %19 ]
  %27 = phi ptr [ %.pre.i, %25 ], [ %5, %19 ]
  %.sroa.0.0.insert.insert.i = or disjoint i64 %16, 4294967296
  %28 = zext i32 %26 to i64
  %29 = getelementptr inbounds nuw %"struct.std::pair", ptr %27, i64 %28
  store i64 %.sroa.0.0.insert.insert.i, ptr %29, align 4
  %30 = load ptr, ptr %4, align 8, !tbaa !166
  %31 = getelementptr inbounds i8, ptr %30, i64 -4
  %32 = load i32, ptr %31, align 4, !tbaa !40
  %33 = add i32 %32, 1
  store i32 %33, ptr %31, align 4, !tbaa !40
  tail call void @_ZN7datalog14bound_relation5mk_ltEj(ptr noundef nonnull align 8 dereferenceable(136) %0, i32 noundef %.08.i.i)
  ret void
}